target datalayout = "e-m:e-p270:32:32-p271:32:32-p272:64:64-i64:64-i128:128-f80:128-n8:16:32:64-S128"
target triple = "x86_64-pc-linux-gnu"

%struct.H5P_genclass_t = type { ptr, ptr, i32, i64, i32, i32, i32, i8, i32, ptr, ptr, ptr, ptr, ptr, ptr, ptr }
%struct.H5P_genplist_t = type { ptr, i64, i64, i8, ptr, ptr }

@H5P_init_g = external global i8, align 1
@H5_libterm_g = external global i8, align 1
@.str.7 = private unnamed_addr constant [100 x i8] c"generated/home/dtcxzyw/WorkSpace/Projects/compilers/llvm-opt-benchmark/bench/hdf5/hdf5/src/H5Pint.c\00", align 1
@H5E_PLIST_g = external global i64, align 8
@__func__.H5P__find_prop_plist = private unnamed_addr constant [21 x i8] c"H5P__find_prop_plist\00", align 1
@H5E_NOTFOUND_g = external global i64, align 8
@.str.33 = private unnamed_addr constant [32 x i8] c"property deleted from skip list\00", align 1
@.str.34 = private unnamed_addr constant [33 x i8] c"can't find property in skip list\00", align 1

; Function Attrs: nounwind uwtable
define ptr @H5P__find_prop_plist(ptr noundef %0, ptr noundef %1) #0 {
  %3 = alloca ptr, align 8
  %4 = alloca ptr, align 8
  %5 = alloca ptr, align 8
  %6 = alloca ptr, align 8
  %7 = alloca i8, align 1
  %8 = alloca ptr, align 8
  %9 = alloca i32, align 4
  store ptr %0, ptr %4, align 8, !tbaa !59
  store ptr %1, ptr %5, align 8, !tbaa !39
  call void @llvm.lifetime.start.p0(i64 8, ptr %6) #8
  store ptr null, ptr %6, align 8, !tbaa !68
  call void @llvm.lifetime.start.p0(i64 1, ptr %7) #8
  store i8 0, ptr %7, align 1, !tbaa !7
  %10 = load i8, ptr @H5P_init_g, align 1, !tbaa !7, !range !9, !noundef !10
  %11 = trunc i8 %10 to i1
  br i1 %11, label %16, label %12

12:                                               ; preds = %2
  %13 = load i8, ptr @H5_libterm_g, align 1, !tbaa !7, !range !9, !noundef !10
  %14 = trunc i8 %13 to i1
  %15 = xor i1 %14, true
  br label %16

16:                                               ; preds = %12, %2
  %17 = phi i1 [ true, %2 ], [ %15, %12 ]
  %18 = xor i1 %17, true
  %19 = xor i1 %18, true
  %20 = zext i1 %19 to i32
  %21 = sext i32 %20 to i64
  %22 = call i64 @llvm.expect.i64(i64 %21, i64 1)
  %23 = icmp ne i64 %22, 0
  br i1 %23, label %24, label %105

24:                                               ; preds = %16
  %25 = load ptr, ptr %4, align 8, !tbaa !59
  %26 = getelementptr inbounds nuw %struct.H5P_genplist_t, ptr %25, i32 0, i32 4
  %27 = load ptr, ptr %26, align 8, !tbaa !80
  %28 = load ptr, ptr %5, align 8, !tbaa !39
  %29 = call ptr @H5SL_search(ptr noundef %27, ptr noundef %28)
  %30 = icmp ne ptr %29, null
  br i1 %30, label %31, label %50

31:                                               ; preds = %24
  br label %32

32:                                               ; preds = %31
  br label %33

33:                                               ; preds = %32
  br label %34

34:                                               ; preds = %33
  %35 = load i64, ptr @H5E_PLIST_g, align 8, !tbaa !11
  %36 = load i64, ptr @H5E_NOTFOUND_g, align 8, !tbaa !11
  %37 = call i32 (ptr, ptr, i32, i64, i64, ptr, ...) @H5E_printf_stack(ptr noundef @.str.7, ptr noundef @__func__.H5P__find_prop_plist, i32 noundef 1422, i64 noundef %35, i64 noundef %36, ptr noundef @.str.33)
  br label %38

38:                                               ; preds = %34
  br label %39

39:                                               ; preds = %38
  store i8 1, ptr %7, align 1, !tbaa !7
  %40 = load i8, ptr %7, align 1, !tbaa !7, !range !9, !noundef !10
  %41 = trunc i8 %40 to i1
  %42 = zext i1 %41 to i8
  store i8 %42, ptr %7, align 1, !tbaa !7
  br label %43

43:                                               ; preds = %39
  br label %44

44:                                               ; preds = %43
  br label %45

45:                                               ; preds = %44
  store ptr null, ptr %6, align 8, !tbaa !68
  br label %104

46:                                               ; No predecessors!
  br label %47

47:                                               ; preds = %46
  br label %48

48:                                               ; preds = %47
  br label %49

49:                                               ; preds = %48
  br label %103

50:                                               ; preds = %24
  %51 = load ptr, ptr %4, align 8, !tbaa !59
  %52 = getelementptr inbounds nuw %struct.H5P_genplist_t, ptr %51, i32 0, i32 5
  %53 = load ptr, ptr %52, align 8, !tbaa !79
  %54 = load ptr, ptr %5, align 8, !tbaa !39
  %55 = call ptr @H5SL_search(ptr noundef %53, ptr noundef %54)
  store ptr %55, ptr %6, align 8, !tbaa !68
  %56 = icmp eq ptr null, %55
  br i1 %56, label %57, label %102

57:                                               ; preds = %50
  call void @llvm.lifetime.start.p0(i64 8, ptr %8) #8
  %58 = load ptr, ptr %4, align 8, !tbaa !59
  %59 = getelementptr inbounds nuw %struct.H5P_genplist_t, ptr %58, i32 0, i32 0
  %60 = load ptr, ptr %59, align 8, !tbaa !63
  store ptr %60, ptr %8, align 8, !tbaa !22
  br label %61

61:                                               ; preds = %72, %57
  %62 = load ptr, ptr %8, align 8, !tbaa !22
  %63 = icmp ne ptr %62, null
  br i1 %63, label %64, label %76

64:                                               ; preds = %61
  %65 = load ptr, ptr %8, align 8, !tbaa !22
  %66 = getelementptr inbounds nuw %struct.H5P_genclass_t, ptr %65, i32 0, i32 9
  %67 = load ptr, ptr %66, align 8, !tbaa !52
  %68 = load ptr, ptr %5, align 8, !tbaa !39
  %69 = call ptr @H5SL_search(ptr noundef %67, ptr noundef %68)
  store ptr %69, ptr %6, align 8, !tbaa !68
  %70 = icmp ne ptr null, %69
  br i1 %70, label %71, label %72

71:                                               ; preds = %64
  br label %76

72:                                               ; preds = %64
  %73 = load ptr, ptr %8, align 8, !tbaa !22
  %74 = getelementptr inbounds nuw %struct.H5P_genclass_t, ptr %73, i32 0, i32 0
  %75 = load ptr, ptr %74, align 8, !tbaa !41
  store ptr %75, ptr %8, align 8, !tbaa !22
  br label %61, !llvm.loop !92

76:                                               ; preds = %71, %61
  %77 = load ptr, ptr %6, align 8, !tbaa !68
  %78 = icmp eq ptr %77, null
  br i1 %78, label %79, label %98

79:                                               ; preds = %76
  br label %80

80:                                               ; preds = %79
  br label %81

81:                                               ; preds = %80
  br label %82

82:                                               ; preds = %81
  %83 = load i64, ptr @H5E_PLIST_g, align 8, !tbaa !11
  %84 = load i64, ptr @H5E_NOTFOUND_g, align 8, !tbaa !11
  %85 = call i32 (ptr, ptr, i32, i64, i64, ptr, ...) @H5E_printf_stack(ptr noundef @.str.7, ptr noundef @__func__.H5P__find_prop_plist, i32 noundef 1443, i64 noundef %83, i64 noundef %84, ptr noundef @.str.34)
  br label %86

86:                                               ; preds = %82
  br label %87

87:                                               ; preds = %86
  store i8 1, ptr %7, align 1, !tbaa !7
  %88 = load i8, ptr %7, align 1, !tbaa !7, !range !9, !noundef !10
  %89 = trunc i8 %88 to i1
  %90 = zext i1 %89 to i8
  store i8 %90, ptr %7, align 1, !tbaa !7
  br label %91

91:                                               ; preds = %87
  br label %92

92:                                               ; preds = %91
  br label %93

93:                                               ; preds = %92
  store ptr null, ptr %6, align 8, !tbaa !68
  store i32 10, ptr %9, align 4
  br label %99

94:                                               ; No predecessors!
  br label %95

95:                                               ; preds = %94
  br label %96

96:                                               ; preds = %95
  br label %97

97:                                               ; preds = %96
  br label %98

98:                                               ; preds = %97, %76
  store i32 0, ptr %9, align 4
  br label %99

99:                                               ; preds = %93, %98
  call void @llvm.lifetime.end.p0(i64 8, ptr %8) #8
  %100 = load i32, ptr %9, align 4
  switch i32 %100, label %107 [
    i32 0, label %101
    i32 10, label %104
  ]

101:                                              ; preds = %99
  br label %102

102:                                              ; preds = %101, %50
  br label %103

103:                                              ; preds = %102, %49
  br label %104

104:                                              ; preds = %103, %99, %45
  br label %105

105:                                              ; preds = %104, %16
  %106 = load ptr, ptr %6, align 8, !tbaa !68
  store ptr %106, ptr %3, align 8
  store i32 1, ptr %9, align 4
  br label %107

107:                                              ; preds = %105, %99
  call void @llvm.lifetime.end.p0(i64 1, ptr %7) #8
  call void @llvm.lifetime.end.p0(i64 8, ptr %6) #8
  %108 = load ptr, ptr %3, align 8
  ret ptr %108
}