; Function Attrs: nounwind uwtable
define ptr @H5P__find_prop_plist(ptr noundef readonly captures(none) %0, ptr noundef %1) local_unnamed_addr #0 {
  %3 = load i8, ptr @H5P_init_g, align 1, !tbaa !3, !range !7, !noundef !8
  %4 = trunc nuw i8 %3 to i1
  %5 = load i8, ptr @H5_libterm_g, align 1, !range !7
  %6 = trunc nuw i8 %5 to i1
  %7 = xor i1 %6, true
  %8 = select i1 %4, i1 true, i1 %7
  br i1 %8, label %9, label %.loopexit, !prof !9

9:                                                ; preds = %2
  %10 = getelementptr inbounds nuw i8, ptr %0, i64 32
  %11 = load ptr, ptr %10, align 8, !tbaa !59
  %12 = tail call ptr @H5SL_search(ptr noundef %11, ptr noundef %1) #14
  %.not = icmp eq ptr %12, null
  br i1 %.not, label %17, label %13

13:                                               ; preds = %9
  %14 = load i64, ptr @H5E_PLIST_g, align 8, !tbaa !10
  %15 = load i64, ptr @H5E_NOTFOUND_g, align 8, !tbaa !10
  %16 = tail call i32 (ptr, ptr, i32, i64, i64, ptr, ...) @H5E_printf_stack(ptr noundef nonnull @.str.7, ptr noundef nonnull @__func__.H5P__find_prop_plist, i32 noundef 1422, i64 noundef %14, i64 noundef %15, ptr noundef nonnull @.str.33) #14
  br label %.loopexit

17:                                               ; preds = %9
  %18 = getelementptr inbounds nuw i8, ptr %0, i64 40
  %19 = load ptr, ptr %18, align 8, !tbaa !58
  %20 = tail call ptr @H5SL_search(ptr noundef %19, ptr noundef %1) #14
  %21 = icmp eq ptr %20, null
  br i1 %21, label %.preheader, label %.loopexit

.preheader:                                       ; preds = %17, %22
  %.014.in = phi ptr [ %.014, %22 ], [ %0, %17 ]
  %.014 = load ptr, ptr %.014.in, align 8, !tbaa !22
  %.not21 = icmp eq ptr %.014, null
  br i1 %.not21, label %26, label %22

22:                                               ; preds = %.preheader
  %23 = getelementptr inbounds nuw i8, ptr %.014, i64 56
  %24 = load ptr, ptr %23, align 8, !tbaa !47
  %25 = tail call ptr @H5SL_search(ptr noundef %24, ptr noundef %1) #14
  %.not22 = icmp eq ptr %25, null
  br i1 %.not22, label %.preheader, label %.loopexit, !llvm.loop !86

26:                                               ; preds = %.preheader
  %27 = load i64, ptr @H5E_PLIST_g, align 8, !tbaa !10
  %28 = load i64, ptr @H5E_NOTFOUND_g, align 8, !tbaa !10
  %29 = tail call i32 (ptr, ptr, i32, i64, i64, ptr, ...) @H5E_printf_stack(ptr noundef nonnull @.str.7, ptr noundef nonnull @__func__.H5P__find_prop_plist, i32 noundef 1443, i64 noundef %27, i64 noundef %28, ptr noundef nonnull @.str.34) #14
  br label %.loopexit

.loopexit:                                        ; preds = %22, %26, %2, %17, %13
  %.016 = phi ptr [ null, %13 ], [ %20, %17 ], [ null, %2 ], [ null, %26 ], [ %25, %22 ]
  ret ptr %.016
}